target datalayout = "e-m:e-p270:32:32-p271:32:32-p272:64:64-i64:64-i128:128-f80:128-n8:16:32:64-S128"
target triple = "x86_64-pc-linux-gnu"

%struct.FT_Service_MultiMastersRec_ = type { ptr, ptr, ptr, ptr, ptr, ptr, ptr, ptr, ptr, ptr, ptr, ptr, ptr, ptr, ptr, ptr, ptr, ptr, ptr }
%struct.FT_FaceRec_ = type { i64, i64, i64, i64, i64, ptr, ptr, i32, ptr, i32, ptr, %struct.FT_Generic_, %struct.FT_BBox_, i16, i16, i16, i16, i16, i16, i16, i16, ptr, ptr, ptr, ptr, ptr, ptr, %struct.FT_ListRec_, %struct.FT_Generic_, ptr, ptr }
%struct.FT_BBox_ = type { i64, i64, i64, i64 }
%struct.FT_ListRec_ = type { ptr, ptr }
%struct.FT_Generic_ = type { ptr, ptr }
%struct.FT_Face_InternalRec_ = type { %struct.FT_Matrix_, %struct.FT_Vector_, i32, %struct.FT_ServiceCacheRec_, ptr, i8, i32, i32 }
%struct.FT_Matrix_ = type { i64, i64, i64, i64 }
%struct.FT_Vector_ = type { i64, i64 }
%struct.FT_ServiceCacheRec_ = type { ptr, ptr, ptr, ptr, ptr, ptr }
%struct.FT_ModuleRec_ = type { ptr, ptr, ptr }
%struct.FT_Module_Class_ = type { i64, i64, ptr, i64, i64, ptr, ptr, ptr, ptr }
%struct.FT_Service_MetricsVariationsRec_ = type { ptr, ptr, ptr, ptr, ptr, ptr, ptr, ptr, ptr }

@.str = private unnamed_addr constant [14 x i8] c"multi-masters\00", align 1
@.str.1 = private unnamed_addr constant [19 x i8] c"metrics-variations\00", align 1

; Function Attrs: nounwind uwtable
define internal i32 @ft_face_get_mvar_service(ptr noundef %0, ptr noundef %1) #0 {
  %3 = alloca i32, align 4
  %4 = alloca ptr, align 8
  %5 = alloca ptr, align 8
  %6 = alloca i32, align 4
  %7 = alloca ptr, align 8
  %8 = alloca ptr, align 8
  %9 = alloca ptr, align 8
  store ptr %0, ptr %4, align 8
  store ptr %1, ptr %5, align 8
  %10 = load ptr, ptr %5, align 8
  store ptr null, ptr %10, align 8
  %11 = load ptr, ptr %4, align 8
  %12 = icmp ne ptr %11, null
  br i1 %12, label %14, label %13

13:                                               ; preds = %2
  store i32 35, ptr %3, align 4
  br label %80

14:                                               ; preds = %2
  store i32 6, ptr %6, align 4
  %15 = load ptr, ptr %4, align 8
  %16 = getelementptr inbounds %struct.FT_FaceRec_, ptr %15, i32 0, i32 2
  %17 = load i64, ptr %16, align 8
  %18 = and i64 %17, 256
  %19 = icmp ne i64 %18, 0
  br i1 %19, label %20, label %78

20:                                               ; preds = %14
  br label %21

21:                                               ; preds = %20
  %22 = load ptr, ptr %4, align 8
  %23 = getelementptr inbounds %struct.FT_FaceRec_, ptr %22, i32 0, i32 30
  %24 = load ptr, ptr %23, align 8
  %25 = getelementptr inbounds %struct.FT_Face_InternalRec_, ptr %24, i32 0, i32 3
  %26 = getelementptr inbounds %struct.FT_ServiceCacheRec_, ptr %25, i32 0, i32 2
  %27 = load ptr, ptr %26, align 8
  store ptr %27, ptr %7, align 8
  %28 = load ptr, ptr %7, align 8
  %29 = icmp eq ptr %28, inttoptr (i64 -2 to ptr)
  br i1 %29, label %30, label %31

30:                                               ; preds = %21
  store ptr null, ptr %7, align 8
  br label %69

31:                                               ; preds = %21
  %32 = load ptr, ptr %7, align 8
  %33 = icmp eq ptr %32, null
  br i1 %33, label %34, label %68

34:                                               ; preds = %31
  br label %35

35:                                               ; preds = %34
  %36 = load ptr, ptr %4, align 8
  %37 = getelementptr inbounds %struct.FT_FaceRec_, ptr %36, i32 0, i32 24
  %38 = load ptr, ptr %37, align 8
  store ptr %38, ptr %8, align 8
  store ptr null, ptr %9, align 8
  %39 = load ptr, ptr %8, align 8
  %40 = getelementptr inbounds %struct.FT_ModuleRec_, ptr %39, i32 0, i32 0
  %41 = load ptr, ptr %40, align 8
  %42 = getelementptr inbounds %struct.FT_Module_Class_, ptr %41, i32 0, i32 8
  %43 = load ptr, ptr %42, align 8
  %44 = icmp ne ptr %43, null
  br i1 %44, label %45, label %53

45:                                               ; preds = %35
  %46 = load ptr, ptr %8, align 8
  %47 = getelementptr inbounds %struct.FT_ModuleRec_, ptr %46, i32 0, i32 0
  %48 = load ptr, ptr %47, align 8
  %49 = getelementptr inbounds %struct.FT_Module_Class_, ptr %48, i32 0, i32 8
  %50 = load ptr, ptr %49, align 8
  %51 = load ptr, ptr %8, align 8
  %52 = call ptr %50(ptr noundef %51, ptr noundef @.str.1)
  store ptr %52, ptr %9, align 8
  br label %53

53:                                               ; preds = %45, %35
  %54 = load ptr, ptr %9, align 8
  store ptr %54, ptr %7, align 8
  br label %55

55:                                               ; preds = %53
  %56 = load ptr, ptr %7, align 8
  %57 = icmp ne ptr %56, null
  br i1 %57, label %58, label %60

58:                                               ; preds = %55
  %59 = load ptr, ptr %7, align 8
  br label %61

60:                                               ; preds = %55
  br label %61

61:                                               ; preds = %60, %58
  %62 = phi ptr [ %59, %58 ], [ inttoptr (i64 -2 to ptr), %60 ]
  %63 = load ptr, ptr %4, align 8
  %64 = getelementptr inbounds %struct.FT_FaceRec_, ptr %63, i32 0, i32 30
  %65 = load ptr, ptr %64, align 8
  %66 = getelementptr inbounds %struct.FT_Face_InternalRec_, ptr %65, i32 0, i32 3
  %67 = getelementptr inbounds %struct.FT_ServiceCacheRec_, ptr %66, i32 0, i32 2
  store ptr %62, ptr %67, align 8
  br label %68

68:                                               ; preds = %61, %31
  br label %69

69:                                               ; preds = %68, %30
  %70 = load ptr, ptr %7, align 8
  %71 = load ptr, ptr %5, align 8
  store ptr %70, ptr %71, align 8
  br label %72

72:                                               ; preds = %69
  %73 = load ptr, ptr %5, align 8
  %74 = load ptr, ptr %73, align 8
  %75 = icmp ne ptr %74, null
  br i1 %75, label %76, label %77

76:                                               ; preds = %72
  store i32 0, ptr %6, align 4
  br label %77

77:                                               ; preds = %76, %72
  br label %78

78:                                               ; preds = %77, %14
  %79 = load i32, ptr %6, align 4
  store i32 %79, ptr %3, align 4
  br label %80

80:                                               ; preds = %78, %13
  %81 = load i32, ptr %3, align 4
  ret i32 %81
}

; Function Attrs: nounwind uwtable
define internal i32 @ft_face_get_mm_service(ptr noundef %0, ptr noundef %1) #0 {
  %3 = alloca i32, align 4
  %4 = alloca ptr, align 8
  %5 = alloca ptr, align 8
  %6 = alloca i32, align 4
  %7 = alloca ptr, align 8
  %8 = alloca ptr, align 8
  %9 = alloca ptr, align 8
  store ptr %0, ptr %4, align 8
  store ptr %1, ptr %5, align 8
  %10 = load ptr, ptr %5, align 8
  store ptr null, ptr %10, align 8
  %11 = load ptr, ptr %4, align 8
  %12 = icmp ne ptr %11, null
  br i1 %12, label %14, label %13

13:                                               ; preds = %2
  store i32 35, ptr %3, align 4
  br label %80

14:                                               ; preds = %2
  store i32 6, ptr %6, align 4
  %15 = load ptr, ptr %4, align 8
  %16 = getelementptr inbounds %struct.FT_FaceRec_, ptr %15, i32 0, i32 2
  %17 = load i64, ptr %16, align 8
  %18 = and i64 %17, 256
  %19 = icmp ne i64 %18, 0
  br i1 %19, label %20, label %78

20:                                               ; preds = %14
  br label %21

21:                                               ; preds = %20
  %22 = load ptr, ptr %4, align 8
  %23 = getelementptr inbounds %struct.FT_FaceRec_, ptr %22, i32 0, i32 30
  %24 = load ptr, ptr %23, align 8
  %25 = getelementptr inbounds %struct.FT_Face_InternalRec_, ptr %24, i32 0, i32 3
  %26 = getelementptr inbounds %struct.FT_ServiceCacheRec_, ptr %25, i32 0, i32 1
  %27 = load ptr, ptr %26, align 8
  store ptr %27, ptr %7, align 8
  %28 = load ptr, ptr %7, align 8
  %29 = icmp eq ptr %28, inttoptr (i64 -2 to ptr)
  br i1 %29, label %30, label %31

30:                                               ; preds = %21
  store ptr null, ptr %7, align 8
  br label %69

31:                                               ; preds = %21
  %32 = load ptr, ptr %7, align 8
  %33 = icmp eq ptr %32, null
  br i1 %33, label %34, label %68

34:                                               ; preds = %31
  br label %35

35:                                               ; preds = %34
  %36 = load ptr, ptr %4, align 8
  %37 = getelementptr inbounds %struct.FT_FaceRec_, ptr %36, i32 0, i32 24
  %38 = load ptr, ptr %37, align 8
  store ptr %38, ptr %8, align 8
  store ptr null, ptr %9, align 8
  %39 = load ptr, ptr %8, align 8
  %40 = getelementptr inbounds %struct.FT_ModuleRec_, ptr %39, i32 0, i32 0
  %41 = load ptr, ptr %40, align 8
  %42 = getelementptr inbounds %struct.FT_Module_Class_, ptr %41, i32 0, i32 8
  %43 = load ptr, ptr %42, align 8
  %44 = icmp ne ptr %43, null
  br i1 %44, label %45, label %53

45:                                               ; preds = %35
  %46 = load ptr, ptr %8, align 8
  %47 = getelementptr inbounds %struct.FT_ModuleRec_, ptr %46, i32 0, i32 0
  %48 = load ptr, ptr %47, align 8
  %49 = getelementptr inbounds %struct.FT_Module_Class_, ptr %48, i32 0, i32 8
  %50 = load ptr, ptr %49, align 8
  %51 = load ptr, ptr %8, align 8
  %52 = call ptr %50(ptr noundef %51, ptr noundef @.str)
  store ptr %52, ptr %9, align 8
  br label %53

53:                                               ; preds = %45, %35
  %54 = load ptr, ptr %9, align 8
  store ptr %54, ptr %7, align 8
  br label %55

55:                                               ; preds = %53
  %56 = load ptr, ptr %7, align 8
  %57 = icmp ne ptr %56, null
  br i1 %57, label %58, label %60

58:                                               ; preds = %55
  %59 = load ptr, ptr %7, align 8
  br label %61

60:                                               ; preds = %55
  br label %61

61:                                               ; preds = %60, %58
  %62 = phi ptr [ %59, %58 ], [ inttoptr (i64 -2 to ptr), %60 ]
  %63 = load ptr, ptr %4, align 8
  %64 = getelementptr inbounds %struct.FT_FaceRec_, ptr %63, i32 0, i32 30
  %65 = load ptr, ptr %64, align 8
  %66 = getelementptr inbounds %struct.FT_Face_InternalRec_, ptr %65, i32 0, i32 3
  %67 = getelementptr inbounds %struct.FT_ServiceCacheRec_, ptr %66, i32 0, i32 1
  store ptr %62, ptr %67, align 8
  br label %68

68:                                               ; preds = %61, %31
  br label %69

69:                                               ; preds = %68, %30
  %70 = load ptr, ptr %7, align 8
  %71 = load ptr, ptr %5, align 8
  store ptr %70, ptr %71, align 8
  br label %72

72:                                               ; preds = %69
  %73 = load ptr, ptr %5, align 8
  %74 = load ptr, ptr %73, align 8
  %75 = icmp ne ptr %74, null
  br i1 %75, label %76, label %77

76:                                               ; preds = %72
  store i32 0, ptr %6, align 4
  br label %77

77:                                               ; preds = %76, %72
  br label %78

78:                                               ; preds = %77, %14
  %79 = load i32, ptr %6, align 4
  store i32 %79, ptr %3, align 4
  br label %80

80:                                               ; preds = %78, %13
  %81 = load i32, ptr %3, align 4
  ret i32 %81
}

; Function Attrs: nounwind uwtable
define i32 @FT_Set_MM_Blend_Coordinates(ptr noundef %0, i32 noundef %1, ptr noundef %2) #0 {
  %4 = alloca i32, align 4
  %5 = alloca ptr, align 8
  %6 = alloca i32, align 4
  %7 = alloca ptr, align 8
  %8 = alloca i32, align 4
  %9 = alloca ptr, align 8
  %10 = alloca ptr, align 8
  %11 = alloca i8, align 1
  store ptr %0, ptr %5, align 8
  store i32 %1, ptr %6, align 4
  store ptr %2, ptr %7, align 8
  store ptr null, ptr %9, align 8
  store ptr null, ptr %10, align 8
  %12 = load i32, ptr %6, align 4
  %13 = icmp ne i32 %12, 0
  br i1 %13, label %14, label %18

14:                                               ; preds = %3
  %15 = load ptr, ptr %7, align 8
  %16 = icmp ne ptr %15, null
  br i1 %16, label %18, label %17

17:                                               ; preds = %14
  store i32 6, ptr %4, align 4
  br label %144

18:                                               ; preds = %14, %3
  %19 = load ptr, ptr %5, align 8
  %20 = call i32 @ft_face_get_mm_service(ptr noundef %19, ptr noundef %9)
  store i32 %20, ptr %8, align 4
  %21 = load i32, ptr %8, align 4
  %22 = icmp ne i32 %21, 0
  br i1 %22, label %102, label %23

23:                                               ; preds = %18
  store i32 6, ptr %8, align 4
  %24 = load ptr, ptr %9, align 8
  %25 = getelementptr inbounds %struct.FT_Service_MultiMastersRec_, ptr %24, i32 0, i32 2
  %26 = load ptr, ptr %25, align 8
  %27 = icmp ne ptr %26, null
  br i1 %27, label %28, label %36

28:                                               ; preds = %23
  %29 = load ptr, ptr %9, align 8
  %30 = getelementptr inbounds %struct.FT_Service_MultiMastersRec_, ptr %29, i32 0, i32 2
  %31 = load ptr, ptr %30, align 8
  %32 = load ptr, ptr %5, align 8
  %33 = load i32, ptr %6, align 4
  %34 = load ptr, ptr %7, align 8
  %35 = call i32 %31(ptr noundef %32, i32 noundef %33, ptr noundef %34)
  store i32 %35, ptr %8, align 4
  br label %36

36:                                               ; preds = %28, %23
  %37 = load i32, ptr %8, align 4
  %38 = icmp ne i32 %37, 0
  br i1 %38, label %39, label %42

39:                                               ; preds = %36
  %40 = load i32, ptr %8, align 4
  %41 = icmp eq i32 %40, -1
  br i1 %41, label %42, label %97

42:                                               ; preds = %39, %36
  %43 = load ptr, ptr %5, align 8
  %44 = getelementptr inbounds %struct.FT_FaceRec_, ptr %43, i32 0, i32 2
  %45 = load i64, ptr %44, align 8
  %46 = and i64 %45, 32768
  %47 = icmp ne i64 %46, 0
  %48 = xor i1 %47, true
  %49 = xor i1 %48, true
  %50 = zext i1 %49 to i32
  %51 = trunc i32 %50 to i8
  store i8 %51, ptr %11, align 1
  %52 = load i32, ptr %6, align 4
  %53 = icmp ne i32 %52, 0
  br i1 %53, label %54, label %59

54:                                               ; preds = %42
  %55 = load ptr, ptr %5, align 8
  %56 = getelementptr inbounds %struct.FT_FaceRec_, ptr %55, i32 0, i32 2
  %57 = load i64, ptr %56, align 8
  %58 = or i64 %57, 32768
  store i64 %58, ptr %56, align 8
  br label %64

59:                                               ; preds = %42
  %60 = load ptr, ptr %5, align 8
  %61 = getelementptr inbounds %struct.FT_FaceRec_, ptr %60, i32 0, i32 2
  %62 = load i64, ptr %61, align 8
  %63 = and i64 %62, -32769
  store i64 %63, ptr %61, align 8
  br label %64

64:                                               ; preds = %59, %54
  %65 = load ptr, ptr %9, align 8
  %66 = getelementptr inbounds %struct.FT_Service_MultiMastersRec_, ptr %65, i32 0, i32 11
  %67 = load ptr, ptr %66, align 8
  %68 = icmp ne ptr %67, null
  br i1 %68, label %69, label %96

69:                                               ; preds = %64
  %70 = load i32, ptr %8, align 4
  %71 = icmp eq i32 %70, -1
  br i1 %71, label %72, label %90

72:                                               ; preds = %69
  %73 = load i8, ptr %11, align 1
  %74 = zext i8 %73 to i32
  %75 = load ptr, ptr %5, align 8
  %76 = getelementptr inbounds %struct.FT_FaceRec_, ptr %75, i32 0, i32 2
  %77 = load i64, ptr %76, align 8
  %78 = and i64 %77, 32768
  %79 = icmp ne i64 %78, 0
  %80 = xor i1 %79, true
  %81 = xor i1 %80, true
  %82 = zext i1 %81 to i32
  %83 = icmp ne i32 %74, %82
  br i1 %83, label %84, label %89

84:                                               ; preds = %72
  %85 = load ptr, ptr %9, align 8
  %86 = getelementptr inbounds %struct.FT_Service_MultiMastersRec_, ptr %85, i32 0, i32 11
  %87 = load ptr, ptr %86, align 8
  %88 = load ptr, ptr %5, align 8
  call void %87(ptr noundef %88)
  br label %89

89:                                               ; preds = %84, %72
  br label %95

90:                                               ; preds = %69
  %91 = load ptr, ptr %9, align 8
  %92 = getelementptr inbounds %struct.FT_Service_MultiMastersRec_, ptr %91, i32 0, i32 11
  %93 = load ptr, ptr %92, align 8
  %94 = load ptr, ptr %5, align 8
  call void %93(ptr noundef %94)
  br label %95

95:                                               ; preds = %90, %89
  br label %96

96:                                               ; preds = %95, %64
  br label %97

97:                                               ; preds = %96, %39
  %98 = load i32, ptr %8, align 4
  %99 = icmp eq i32 %98, -1
  br i1 %99, label %100, label %101

100:                                              ; preds = %97
  store i32 0, ptr %4, align 4
  br label %144

101:                                              ; preds = %97
  br label %102

102:                                              ; preds = %101, %18
  %103 = load i32, ptr %8, align 4
  %104 = icmp ne i32 %103, 0
  br i1 %104, label %121, label %105

105:                                              ; preds = %102
  %106 = load ptr, ptr %5, align 8
  %107 = call i32 @ft_face_get_mvar_service(ptr noundef %106, ptr noundef %10)
  %108 = load ptr, ptr %10, align 8
  %109 = icmp ne ptr %108, null
  br i1 %109, label %110, label %120

110:                                              ; preds = %105
  %111 = load ptr, ptr %10, align 8
  %112 = getelementptr inbounds %struct.FT_Service_MetricsVariationsRec_, ptr %111, i32 0, i32 7
  %113 = load ptr, ptr %112, align 8
  %114 = icmp ne ptr %113, null
  br i1 %114, label %115, label %120

115:                                              ; preds = %110
  %116 = load ptr, ptr %10, align 8
  %117 = getelementptr inbounds %struct.FT_Service_MetricsVariationsRec_, ptr %116, i32 0, i32 7
  %118 = load ptr, ptr %117, align 8
  %119 = load ptr, ptr %5, align 8
  call void %118(ptr noundef %119)
  br label %120

120:                                              ; preds = %115, %110, %105
  br label %121

121:                                              ; preds = %120, %102
  %122 = load i32, ptr %8, align 4
  %123 = icmp ne i32 %122, 0
  br i1 %123, label %142, label %124

124:                                              ; preds = %121
  %125 = load ptr, ptr %5, align 8
  %126 = getelementptr inbounds %struct.FT_FaceRec_, ptr %125, i32 0, i32 28
  %127 = getelementptr inbounds %struct.FT_Generic_, ptr %126, i32 0, i32 1
  %128 = load ptr, ptr %127, align 8
  %129 = icmp ne ptr %128, null
  br i1 %129, label %130, label %142

130:                                              ; preds = %124
  %131 = load ptr, ptr %5, align 8
  %132 = getelementptr inbounds %struct.FT_FaceRec_, ptr %131, i32 0, i32 28
  %133 = getelementptr inbounds %struct.FT_Generic_, ptr %132, i32 0, i32 1
  %134 = load ptr, ptr %133, align 8
  %135 = load ptr, ptr %5, align 8
  %136 = getelementptr inbounds %struct.FT_FaceRec_, ptr %135, i32 0, i32 28
  %137 = getelementptr inbounds %struct.FT_Generic_, ptr %136, i32 0, i32 0
  %138 = load ptr, ptr %137, align 8
  call void %134(ptr noundef %138)
  %139 = load ptr, ptr %5, align 8
  %140 = getelementptr inbounds %struct.FT_FaceRec_, ptr %139, i32 0, i32 28
  %141 = getelementptr inbounds %struct.FT_Generic_, ptr %140, i32 0, i32 0
  store ptr null, ptr %141, align 8
  br label %142

142:                                              ; preds = %130, %124, %121
  %143 = load i32, ptr %8, align 4
  store i32 %143, ptr %4, align 4
  br label %144

144:                                              ; preds = %142, %100, %17
  %145 = load i32, ptr %4, align 4
  ret i32 %145
}