; Function Attrs: nounwind uwtable
define i32 @FT_Set_MM_Blend_Coordinates(ptr noundef %0, i32 noundef %1, ptr noundef %2) local_unnamed_addr #0 {
  %4 = icmp eq i32 %1, 0
  %5 = icmp ne ptr %2, null
  %or.cond = or i1 %4, %5
  br i1 %or.cond, label %6, label %.critedge

6:                                                ; preds = %3
  %.not.i = icmp eq ptr %0, null
  br i1 %.not.i, label %.critedge, label %7

7:                                                ; preds = %6
  %8 = getelementptr inbounds i8, ptr %0, i64 16
  %9 = load i64, ptr %8, align 8
  %10 = and i64 %9, 256
  %.not24.i = icmp eq i64 %10, 0
  br i1 %.not24.i, label %.critedge, label %11

11:                                               ; preds = %7
  %12 = getelementptr inbounds i8, ptr %0, i64 240
  %13 = load ptr, ptr %12, align 8
  %14 = getelementptr inbounds i8, ptr %13, i64 64
  %15 = load ptr, ptr %14, align 8
  %magicptr.i = ptrtoint ptr %15 to i64
  switch i64 %magicptr.i, label %.fold.split.i [
    i64 -2, label %.critedge
    i64 0, label %16
  ]

16:                                               ; preds = %11
  %17 = getelementptr inbounds i8, ptr %0, i64 176
  %18 = load ptr, ptr %17, align 8
  %19 = load ptr, ptr %18, align 8
  %20 = getelementptr inbounds i8, ptr %19, i64 64
  %21 = load ptr, ptr %20, align 8
  %.not25.i = icmp eq ptr %21, null
  br i1 %.not25.i, label %24, label %22

22:                                               ; preds = %16
  %23 = tail call ptr %21(ptr noundef nonnull %18, ptr noundef nonnull @.str) #3
  %.pre.i = load ptr, ptr %12, align 8
  br label %24

24:                                               ; preds = %22, %16
  %25 = phi ptr [ %.pre.i, %22 ], [ %13, %16 ]
  %.0.i = phi ptr [ %23, %22 ], [ null, %16 ]
  %.not26.i = icmp eq ptr %.0.i, null
  %26 = select i1 %.not26.i, ptr inttoptr (i64 -2 to ptr), ptr %.0.i
  %27 = getelementptr inbounds i8, ptr %25, i64 64
  store ptr %26, ptr %27, align 8
  br label %.fold.split.i

.fold.split.i:                                    ; preds = %11, %24
  %.019.i = phi ptr [ %.0.i, %24 ], [ %15, %11 ]
  %.not27.i = icmp eq ptr %.019.i, null
  br i1 %.not27.i, label %.critedge, label %ft_face_get_mm_service.exit

ft_face_get_mm_service.exit:                      ; preds = %.fold.split.i
  %28 = getelementptr inbounds i8, ptr %.019.i, i64 16
  %29 = load ptr, ptr %28, align 8
  %.not38 = icmp eq ptr %29, null
  br i1 %.not38, label %.critedge, label %30

30:                                               ; preds = %ft_face_get_mm_service.exit
  %31 = tail call i32 %29(ptr noundef nonnull %0, i32 noundef %1, ptr noundef %2) #3
  %32 = icmp eq i32 %31, -1
  %33 = add i32 %31, 1
  %or.cond3 = icmp ult i32 %33, 2
  br i1 %or.cond3, label %34, label %.critedge

34:                                               ; preds = %30
  %35 = load i64, ptr %8, align 8
  %36 = and i64 %35, -32769
  %masksel = select i1 %4, i64 0, i64 32768
  %storemerge = or disjoint i64 %36, %masksel
  store i64 %storemerge, ptr %8, align 8
  %37 = getelementptr inbounds i8, ptr %.019.i, i64 88
  %38 = load ptr, ptr %37, align 8
  %.not40 = icmp eq ptr %38, null
  br i1 %.not40, label %42, label %39

39:                                               ; preds = %34
  br i1 %32, label %40, label %.thread71.thread

40:                                               ; preds = %39
  %.masked = and i64 %35, 32768
  %.not41 = icmp eq i64 %.masked, %masksel
  br i1 %.not41, label %.critedge, label %41

41:                                               ; preds = %40
  tail call void %38(ptr noundef nonnull %0) #3
  br label %.critedge

.thread71.thread:                                 ; preds = %39
  tail call void %38(ptr noundef nonnull %0) #3
  br label %.thread71.thread91

42:                                               ; preds = %34
  br i1 %32, label %.critedge, label %.thread71.thread91

.thread71.thread91:                               ; preds = %42, %.thread71.thread
  %43 = load i64, ptr %8, align 8
  %44 = and i64 %43, 256
  %.not24.i47 = icmp eq i64 %44, 0
  br i1 %.not24.i47, label %ft_face_get_mvar_service.exit.thread, label %45

45:                                               ; preds = %.thread71.thread91
  %46 = load ptr, ptr %12, align 8
  %47 = getelementptr inbounds i8, ptr %46, i64 72
  %48 = load ptr, ptr %47, align 8
  %magicptr.i48 = ptrtoint ptr %48 to i64
  switch i64 %magicptr.i48, label %ft_face_get_mvar_service.exit [
    i64 -2, label %ft_face_get_mvar_service.exit.thread
    i64 0, label %49
  ]

49:                                               ; preds = %45
  %50 = getelementptr inbounds i8, ptr %0, i64 176
  %51 = load ptr, ptr %50, align 8
  %52 = load ptr, ptr %51, align 8
  %53 = getelementptr inbounds i8, ptr %52, i64 64
  %54 = load ptr, ptr %53, align 8
  %.not25.i49 = icmp eq ptr %54, null
  br i1 %.not25.i49, label %57, label %55

55:                                               ; preds = %49
  %56 = tail call ptr %54(ptr noundef nonnull %51, ptr noundef nonnull @.str.1) #3
  %.pre.i50 = load ptr, ptr %12, align 8
  br label %57

57:                                               ; preds = %55, %49
  %58 = phi ptr [ %.pre.i50, %55 ], [ %46, %49 ]
  %.0.i51 = phi ptr [ %56, %55 ], [ null, %49 ]
  %.not26.i52 = icmp eq ptr %.0.i51, null
  %59 = select i1 %.not26.i52, ptr inttoptr (i64 -2 to ptr), ptr %.0.i51
  %60 = getelementptr inbounds i8, ptr %58, i64 72
  store ptr %59, ptr %60, align 8
  br label %ft_face_get_mvar_service.exit

ft_face_get_mvar_service.exit:                    ; preds = %45, %57
  %.019.i53 = phi ptr [ %.0.i51, %57 ], [ %48, %45 ]
  %.not43 = icmp eq ptr %.019.i53, null
  br i1 %.not43, label %ft_face_get_mvar_service.exit.thread, label %61

61:                                               ; preds = %ft_face_get_mvar_service.exit
  %62 = getelementptr inbounds i8, ptr %.019.i53, i64 56
  %63 = load ptr, ptr %62, align 8
  %.not44 = icmp eq ptr %63, null
  br i1 %.not44, label %ft_face_get_mvar_service.exit.thread, label %64

64:                                               ; preds = %61
  tail call void %63(ptr noundef nonnull %0) #3
  br label %ft_face_get_mvar_service.exit.thread

ft_face_get_mvar_service.exit.thread:             ; preds = %45, %.thread71.thread91, %64, %61, %ft_face_get_mvar_service.exit
  %65 = getelementptr inbounds i8, ptr %0, i64 224
  %66 = load ptr, ptr %65, align 8
  %.not45 = icmp eq ptr %66, null
  br i1 %.not45, label %.critedge, label %67

67:                                               ; preds = %ft_face_get_mvar_service.exit.thread
  %68 = getelementptr inbounds i8, ptr %0, i64 216
  %69 = load ptr, ptr %68, align 8
  tail call void %66(ptr noundef %69) #3
  store ptr null, ptr %68, align 8
  br label %.critedge

.critedge:                                        ; preds = %30, %ft_face_get_mm_service.exit, %11, %41, %40, %6, %7, %.fold.split.i, %ft_face_get_mvar_service.exit.thread, %67, %42, %3
  %.0 = phi i32 [ 6, %3 ], [ 0, %42 ], [ 0, %67 ], [ 0, %ft_face_get_mvar_service.exit.thread ], [ 6, %7 ], [ 35, %6 ], [ 6, %.fold.split.i ], [ 0, %40 ], [ 0, %41 ], [ 6, %11 ], [ 6, %ft_face_get_mm_service.exit ], [ %31, %30 ]
  ret i32 %.0
}